target datalayout = "e-m:e-p270:32:32-p271:32:32-p272:64:64-i64:64-i128:128-f80:128-n8:16:32:64-S128"
target triple = "x86_64-unknown-linux-gnu"

@_ZN17grpc_event_engine12experimental12_GLOBAL__N_115fork_fd_list_muE = internal global i64 0, align 8

; Function Attrs: mustprogress uwtable
define internal noundef zeroext i1 @_ZN17grpc_event_engine12experimental12_GLOBAL__N_119InitPollPollerPosixEv() #5 {
entry:
  %retval = alloca i1, align 1
  %call = call noundef zeroext i1 @_ZN17grpc_event_engine12experimental16SupportsWakeupFdEv()
  br i1 %call, label %if.end, label %if.then

if.then:                                          ; preds = %entry
  store i1 false, ptr %retval, align 1
  br label %return

if.end:                                           ; preds = %entry
  %call1 = call noundef zeroext i1 @_ZN9grpc_core4Fork7EnabledEv()
  br i1 %call1, label %if.then2, label %if.end6

if.then2:                                         ; preds = %if.end
  %call3 = call noundef zeroext i1 @_ZN9grpc_core4Fork35RegisterResetChildPollingEngineFuncEPFvvE(ptr noundef @_ZN17grpc_event_engine12experimental12_GLOBAL__N_123ResetEventManagerOnForkEv)
  br i1 %call3, label %if.then4, label %if.end5

if.then4:                                         ; preds = %if.then2
  call void @gpr_mu_init(ptr noundef @_ZN17grpc_event_engine12experimental12_GLOBAL__N_115fork_fd_list_muE)
  br label %if.end5

if.end5:                                          ; preds = %if.then4, %if.then2
  br label %if.end6

if.end6:                                          ; preds = %if.end5, %if.end
  store i1 true, ptr %retval, align 1
  br label %return

return:                                           ; preds = %if.end6, %if.then
  %0 = load i1, ptr %retval, align 1
  ret i1 %0
}