; Function Attrs: mustprogress uwtable
define internal fastcc noundef zeroext i1 @_ZN17grpc_event_engine12experimental12_GLOBAL__N_119InitPollPollerPosixEv() unnamed_addr #4 {
entry:
  %call = tail call noundef zeroext i1 @_ZN17grpc_event_engine12experimental16SupportsWakeupFdEv()
  br i1 %call, label %if.end, label %return

if.end:                                           ; preds = %entry
  %call1 = tail call noundef zeroext i1 @_ZN9grpc_core4Fork7EnabledEv()
  br i1 %call1, label %if.then2, label %return

if.then2:                                         ; preds = %if.end
  %call3 = tail call noundef zeroext i1 @_ZN9grpc_core4Fork35RegisterResetChildPollingEngineFuncEPFvvE(ptr noundef nonnull @_ZN17grpc_event_engine12experimental12_GLOBAL__N_123ResetEventManagerOnForkEv)
  br i1 %call3, label %if.then4, label %return

if.then4:                                         ; preds = %if.then2
  tail call void @gpr_mu_init(ptr noundef nonnull @_ZN17grpc_event_engine12experimental12_GLOBAL__N_115fork_fd_list_muE)
  br label %return

return:                                           ; preds = %if.end, %if.then4, %if.then2, %entry
  ret i1 %call
}